
src/single_tribonacci.out:     ファイル形式 elf32-littleriscv


セクション .text の逆アセンブル:

00000000 <_start>:
   0:	00007137          	lui	sp,0x7
   4:	53010113          	addi	sp,sp,1328 # 7530 <_end+0x6530>
   8:	000020b7          	lui	ra,0x2
   c:	71008093          	addi	ra,ra,1808 # 2710 <_end+0x1710>
  10:	0dc0006f          	j	ec <main>

00000014 <_pallc>:
  14:	00000613          	li	a2,0
  18:	00b5060b          	pallc	a2,a0,a1
  1c:	0025460b          	fwd	a2,a0,sp
  20:	0085460b          	fwd	a2,a0,s0
  24:	00060513          	mv	a0,a2
  28:	00008067          	ret

0000002c <_publk>:
  2c:	00000613          	li	a2,0
  30:	0005360b          	publk	a2,a0
  34:	00060513          	mv	a0,a2
  38:	00008067          	ret

0000003c <_pblk>:
  3c:	00000613          	li	a2,0
  40:	0005260b          	pblk	a2,a0
  44:	00060513          	mv	a0,a2
  48:	00008067          	ret

0000004c <_pdall>:
  4c:	00000613          	li	a2,0
  50:	0005160b          	pdall	a2,a0
  54:	00000013          	nop
  58:	00000013          	nop

0000005c <tribonacci>:
  5c:	fe010113          	addi	sp,sp,-32
  60:	00112e23          	sw	ra,28(sp)
  64:	00812c23          	sw	s0,24(sp)
  68:	00912a23          	sw	s1,20(sp)
  6c:	02010413          	addi	s0,sp,32
  70:	fea42623          	sw	a0,-20(s0)
  74:	fec42703          	lw	a4,-20(s0)
  78:	00200793          	li	a5,2
  7c:	00e7ea63          	bltu	a5,a4,90 <tribonacci+0x34>
  80:	fec42783          	lw	a5,-20(s0)
  84:	00f037b3          	snez	a5,a5
  88:	0ff7f793          	andi	a5,a5,255
  8c:	0480006f          	j	d4 <tribonacci+0x78>
  90:	fec42783          	lw	a5,-20(s0)
  94:	fff78793          	addi	a5,a5,-1
  98:	00078513          	mv	a0,a5
  9c:	fc1ff0ef          	jal	ra,5c <tribonacci>
  a0:	00050493          	mv	s1,a0
  a4:	fec42783          	lw	a5,-20(s0)
  a8:	ffe78793          	addi	a5,a5,-2
  ac:	00078513          	mv	a0,a5
  b0:	fadff0ef          	jal	ra,5c <tribonacci>
  b4:	00050793          	mv	a5,a0
  b8:	00f484b3          	add	s1,s1,a5
  bc:	fec42783          	lw	a5,-20(s0)
  c0:	ffd78793          	addi	a5,a5,-3
  c4:	00078513          	mv	a0,a5
  c8:	f95ff0ef          	jal	ra,5c <tribonacci>
  cc:	00050793          	mv	a5,a0
  d0:	00f487b3          	add	a5,s1,a5
  d4:	00078513          	mv	a0,a5
  d8:	01c12083          	lw	ra,28(sp)
  dc:	01812403          	lw	s0,24(sp)
  e0:	01412483          	lw	s1,20(sp)
  e4:	02010113          	addi	sp,sp,32
  e8:	00008067          	ret

000000ec <main>:
  ec:	ff010113          	addi	sp,sp,-16
  f0:	00112623          	sw	ra,12(sp)
  f4:	00812423          	sw	s0,8(sp)
  f8:	01010413          	addi	s0,sp,16
  fc:	00a00513          	li	a0,10
 100:	f5dff0ef          	jal	ra,5c <tribonacci>
 104:	00050793          	mv	a5,a0
 108:	00078513          	mv	a0,a5
 10c:	00c12083          	lw	ra,12(sp)
 110:	00812403          	lw	s0,8(sp)
 114:	01010113          	addi	sp,sp,16
 118:	00008067          	ret
