
src/median_main.out:     ファイル形式 elf32-littleriscv


セクション .text の逆アセンブル:

00000000 <_start>:
   0:	00007137          	lui	sp,0x7
   4:	53010113          	addi	sp,sp,1328 # 7530 <_end+0x6350>
   8:	000020b7          	lui	ra,0x2
   c:	71008093          	addi	ra,ra,1808 # 2710 <_end+0x1530>
  10:	3180006f          	j	328 <main>

00000014 <median>:
  14:	fd010113          	addi	sp,sp,-48
  18:	02812623          	sw	s0,44(sp)
  1c:	03010413          	addi	s0,sp,48
  20:	fca42e23          	sw	a0,-36(s0)
  24:	fcb42c23          	sw	a1,-40(s0)
  28:	fcc42a23          	sw	a2,-44(s0)
  2c:	fd442783          	lw	a5,-44(s0)
  30:	0007a023          	sw	zero,0(a5)
  34:	fdc42703          	lw	a4,-36(s0)
  38:	400007b7          	lui	a5,0x40000
  3c:	fff78793          	addi	a5,a5,-1 # 3fffffff <_end+0x3fffee1f>
  40:	00f707b3          	add	a5,a4,a5
  44:	00279793          	slli	a5,a5,0x2
  48:	fd442703          	lw	a4,-44(s0)
  4c:	00f707b3          	add	a5,a4,a5
  50:	0007a023          	sw	zero,0(a5)
  54:	00100793          	li	a5,1
  58:	fef42623          	sw	a5,-20(s0)
  5c:	1480006f          	j	1a4 <median+0x190>
  60:	fec42703          	lw	a4,-20(s0)
  64:	400007b7          	lui	a5,0x40000
  68:	fff78793          	addi	a5,a5,-1 # 3fffffff <_end+0x3fffee1f>
  6c:	00f707b3          	add	a5,a4,a5
  70:	00279793          	slli	a5,a5,0x2
  74:	fd842703          	lw	a4,-40(s0)
  78:	00f707b3          	add	a5,a4,a5
  7c:	0007a783          	lw	a5,0(a5)
  80:	fef42423          	sw	a5,-24(s0)
  84:	fec42783          	lw	a5,-20(s0)
  88:	00279793          	slli	a5,a5,0x2
  8c:	fd842703          	lw	a4,-40(s0)
  90:	00f707b3          	add	a5,a4,a5
  94:	0007a783          	lw	a5,0(a5)
  98:	fef42223          	sw	a5,-28(s0)
  9c:	fec42783          	lw	a5,-20(s0)
  a0:	00178793          	addi	a5,a5,1
  a4:	00279793          	slli	a5,a5,0x2
  a8:	fd842703          	lw	a4,-40(s0)
  ac:	00f707b3          	add	a5,a4,a5
  b0:	0007a783          	lw	a5,0(a5)
  b4:	fef42023          	sw	a5,-32(s0)
  b8:	fe842703          	lw	a4,-24(s0)
  bc:	fe442783          	lw	a5,-28(s0)
  c0:	06f75863          	bge	a4,a5,130 <median+0x11c>
  c4:	fe442703          	lw	a4,-28(s0)
  c8:	fe042783          	lw	a5,-32(s0)
  cc:	02f75063          	bge	a4,a5,ec <median+0xd8>
  d0:	fec42783          	lw	a5,-20(s0)
  d4:	00279793          	slli	a5,a5,0x2
  d8:	fd442703          	lw	a4,-44(s0)
  dc:	00f707b3          	add	a5,a4,a5
  e0:	fe442703          	lw	a4,-28(s0)
  e4:	00e7a023          	sw	a4,0(a5)
  e8:	0b00006f          	j	198 <median+0x184>
  ec:	fe042703          	lw	a4,-32(s0)
  f0:	fe842783          	lw	a5,-24(s0)
  f4:	02f75063          	bge	a4,a5,114 <median+0x100>
  f8:	fec42783          	lw	a5,-20(s0)
  fc:	00279793          	slli	a5,a5,0x2
 100:	fd442703          	lw	a4,-44(s0)
 104:	00f707b3          	add	a5,a4,a5
 108:	fe842703          	lw	a4,-24(s0)
 10c:	00e7a023          	sw	a4,0(a5)
 110:	0880006f          	j	198 <median+0x184>
 114:	fec42783          	lw	a5,-20(s0)
 118:	00279793          	slli	a5,a5,0x2
 11c:	fd442703          	lw	a4,-44(s0)
 120:	00f707b3          	add	a5,a4,a5
 124:	fe042703          	lw	a4,-32(s0)
 128:	00e7a023          	sw	a4,0(a5)
 12c:	06c0006f          	j	198 <median+0x184>
 130:	fe842703          	lw	a4,-24(s0)
 134:	fe042783          	lw	a5,-32(s0)
 138:	02f75063          	bge	a4,a5,158 <median+0x144>
 13c:	fec42783          	lw	a5,-20(s0)
 140:	00279793          	slli	a5,a5,0x2
 144:	fd442703          	lw	a4,-44(s0)
 148:	00f707b3          	add	a5,a4,a5
 14c:	fe842703          	lw	a4,-24(s0)
 150:	00e7a023          	sw	a4,0(a5)
 154:	0440006f          	j	198 <median+0x184>
 158:	fe042703          	lw	a4,-32(s0)
 15c:	fe442783          	lw	a5,-28(s0)
 160:	02f75063          	bge	a4,a5,180 <median+0x16c>
 164:	fec42783          	lw	a5,-20(s0)
 168:	00279793          	slli	a5,a5,0x2
 16c:	fd442703          	lw	a4,-44(s0)
 170:	00f707b3          	add	a5,a4,a5
 174:	fe442703          	lw	a4,-28(s0)
 178:	00e7a023          	sw	a4,0(a5)
 17c:	01c0006f          	j	198 <median+0x184>
 180:	fec42783          	lw	a5,-20(s0)
 184:	00279793          	slli	a5,a5,0x2
 188:	fd442703          	lw	a4,-44(s0)
 18c:	00f707b3          	add	a5,a4,a5
 190:	fe042703          	lw	a4,-32(s0)
 194:	00e7a023          	sw	a4,0(a5)
 198:	fec42783          	lw	a5,-20(s0)
 19c:	00178793          	addi	a5,a5,1
 1a0:	fef42623          	sw	a5,-20(s0)
 1a4:	fdc42783          	lw	a5,-36(s0)
 1a8:	fff78793          	addi	a5,a5,-1
 1ac:	fec42703          	lw	a4,-20(s0)
 1b0:	eaf748e3          	blt	a4,a5,60 <median+0x4c>
 1b4:	00000013          	nop
 1b8:	00000013          	nop
 1bc:	02c12403          	lw	s0,44(sp)
 1c0:	03010113          	addi	sp,sp,48
 1c4:	00008067          	ret

000001c8 <verify>:
 1c8:	fc010113          	addi	sp,sp,-64
 1cc:	02812e23          	sw	s0,60(sp)
 1d0:	04010413          	addi	s0,sp,64
 1d4:	fca42623          	sw	a0,-52(s0)
 1d8:	fcb42423          	sw	a1,-56(s0)
 1dc:	fcc42223          	sw	a2,-60(s0)
 1e0:	fe042623          	sw	zero,-20(s0)
 1e4:	0b80006f          	j	29c <verify+0xd4>
 1e8:	fec42783          	lw	a5,-20(s0)
 1ec:	00279793          	slli	a5,a5,0x2
 1f0:	fc842703          	lw	a4,-56(s0)
 1f4:	00f707b3          	add	a5,a4,a5
 1f8:	0007a783          	lw	a5,0(a5)
 1fc:	fef42423          	sw	a5,-24(s0)
 200:	fec42783          	lw	a5,-20(s0)
 204:	00178793          	addi	a5,a5,1
 208:	00279793          	slli	a5,a5,0x2
 20c:	fc842703          	lw	a4,-56(s0)
 210:	00f707b3          	add	a5,a4,a5
 214:	0007a783          	lw	a5,0(a5)
 218:	fef42223          	sw	a5,-28(s0)
 21c:	fec42783          	lw	a5,-20(s0)
 220:	00279793          	slli	a5,a5,0x2
 224:	fc442703          	lw	a4,-60(s0)
 228:	00f707b3          	add	a5,a4,a5
 22c:	0007a783          	lw	a5,0(a5)
 230:	fef42023          	sw	a5,-32(s0)
 234:	fec42783          	lw	a5,-20(s0)
 238:	00178793          	addi	a5,a5,1
 23c:	00279793          	slli	a5,a5,0x2
 240:	fc442703          	lw	a4,-60(s0)
 244:	00f707b3          	add	a5,a4,a5
 248:	0007a783          	lw	a5,0(a5)
 24c:	fcf42e23          	sw	a5,-36(s0)
 250:	fe842703          	lw	a4,-24(s0)
 254:	fe042783          	lw	a5,-32(s0)
 258:	00f70c63          	beq	a4,a5,270 <verify+0xa8>
 25c:	fec42703          	lw	a4,-20(s0)
 260:	000027b7          	lui	a5,0x2
 264:	f4178793          	addi	a5,a5,-191 # 1f41 <_end+0xd61>
 268:	00f707b3          	add	a5,a4,a5
 26c:	0ac0006f          	j	318 <verify+0x150>
 270:	fe442703          	lw	a4,-28(s0)
 274:	fdc42783          	lw	a5,-36(s0)
 278:	00f70c63          	beq	a4,a5,290 <verify+0xc8>
 27c:	fec42703          	lw	a4,-20(s0)
 280:	000027b7          	lui	a5,0x2
 284:	f4278793          	addi	a5,a5,-190 # 1f42 <_end+0xd62>
 288:	00f707b3          	add	a5,a4,a5
 28c:	08c0006f          	j	318 <verify+0x150>
 290:	fec42783          	lw	a5,-20(s0)
 294:	00278793          	addi	a5,a5,2
 298:	fef42623          	sw	a5,-20(s0)
 29c:	fcc42783          	lw	a5,-52(s0)
 2a0:	01f7d713          	srli	a4,a5,0x1f
 2a4:	00f707b3          	add	a5,a4,a5
 2a8:	4017d793          	srai	a5,a5,0x1
 2ac:	00179793          	slli	a5,a5,0x1
 2b0:	fec42703          	lw	a4,-20(s0)
 2b4:	f2f74ae3          	blt	a4,a5,1e8 <verify+0x20>
 2b8:	fcc42783          	lw	a5,-52(s0)
 2bc:	0017f793          	andi	a5,a5,1
 2c0:	04078863          	beqz	a5,310 <verify+0x148>
 2c4:	fcc42703          	lw	a4,-52(s0)
 2c8:	400007b7          	lui	a5,0x40000
 2cc:	fff78793          	addi	a5,a5,-1 # 3fffffff <_end+0x3fffee1f>
 2d0:	00f707b3          	add	a5,a4,a5
 2d4:	00279793          	slli	a5,a5,0x2
 2d8:	fc842703          	lw	a4,-56(s0)
 2dc:	00f707b3          	add	a5,a4,a5
 2e0:	0007a703          	lw	a4,0(a5)
 2e4:	fcc42683          	lw	a3,-52(s0)
 2e8:	400007b7          	lui	a5,0x40000
 2ec:	fff78793          	addi	a5,a5,-1 # 3fffffff <_end+0x3fffee1f>
 2f0:	00f687b3          	add	a5,a3,a5
 2f4:	00279793          	slli	a5,a5,0x2
 2f8:	fc442683          	lw	a3,-60(s0)
 2fc:	00f687b3          	add	a5,a3,a5
 300:	0007a783          	lw	a5,0(a5)
 304:	00f70663          	beq	a4,a5,310 <verify+0x148>
 308:	3e700793          	li	a5,999
 30c:	00c0006f          	j	318 <verify+0x150>
 310:	000027b7          	lui	a5,0x2
 314:	70f78793          	addi	a5,a5,1807 # 270f <_end+0x152f>
 318:	00078513          	mv	a0,a5
 31c:	03c12403          	lw	s0,60(sp)
 320:	04010113          	addi	sp,sp,64
 324:	00008067          	ret

00000328 <main>:
 328:	f4010113          	addi	sp,sp,-192
 32c:	0a112e23          	sw	ra,188(sp)
 330:	0a812c23          	sw	s0,184(sp)
 334:	0c010413          	addi	s0,sp,192
 338:	f4a42623          	sw	a0,-180(s0)
 33c:	f4b42423          	sw	a1,-184(s0)
 340:	f5040793          	addi	a5,s0,-176
 344:	00078613          	mv	a2,a5
 348:	00001597          	auipc	a1,0x1
 34c:	cb858593          	addi	a1,a1,-840 # 1000 <input_data>
 350:	02800513          	li	a0,40
 354:	cc1ff0ef          	jal	ra,14 <median>
 358:	0e042703          	lw	a4,224(s0)
 35c:	000187b7          	lui	a5,0x18
 360:	2b878793          	addi	a5,a5,696 # 182b8 <_end+0x170d8>
 364:	00f707b3          	add	a5,a4,a5
 368:	00078513          	mv	a0,a5
 36c:	0bc12083          	lw	ra,188(sp)
 370:	0b812403          	lw	s0,184(sp)
 374:	0c010113          	addi	sp,sp,192
 378:	00008067          	ret

セクション .data の逆アセンブル:

00001000 <input_data>:
    1000:	0029                	c.nop	10
    1002:	0000                	unimp
    1004:	01c6                	slli	gp,gp,0x11
    1006:	0000                	unimp
    1008:	0341                	addi	t1,t1,16
    100a:	0000                	unimp
    100c:	0000014f          	fnmadd.s	ft2,ft0,ft0,ft0,rne
    1010:	0234                	addi	a3,sp,264
    1012:	0000                	unimp
    1014:	0001                	nop
    1016:	0000                	unimp
    1018:	000000bb          	0xbb
    101c:	03dd                	addi	t2,t2,23
    101e:	0000                	unimp
    1020:	02ed                	addi	t0,t0,27
    1022:	0000                	unimp
    1024:	016d                	addi	sp,sp,27
    1026:	0000                	unimp
    1028:	015e                	slli	sp,sp,0x17
    102a:	0000                	unimp
    102c:	023c                	addi	a5,sp,264
    102e:	0000                	unimp
    1030:	0084                	addi	s1,sp,64
    1032:	0000                	unimp
    1034:	0040                	addi	s0,sp,4
    1036:	0000                	unimp
    1038:	03b5                	addi	t2,t2,13
    103a:	0000                	unimp
    103c:	0099                	addi	ra,ra,6
    103e:	0000                	unimp
    1040:	0248                	addi	a0,sp,260
    1042:	0000                	unimp
    1044:	00d8                	addi	a4,sp,68
    1046:	0000                	unimp
    1048:	0325                	addi	t1,t1,9
    104a:	0000                	unimp
    104c:	008c                	addi	a1,sp,64
    104e:	0000                	unimp
    1050:	026d                	addi	tp,tp,27
    1052:	0000                	unimp
    1054:	00d2                	slli	ra,ra,0x14
    1056:	0000                	unimp
    1058:	0006                	c.slli	zero,0x1
    105a:	0000                	unimp
    105c:	023c                	addi	a5,sp,264
    105e:	0000                	unimp
    1060:	000003a3          	sb	zero,7(zero) # 7 <_start+0x7>
    1064:	00000153          	fadd.s	ft2,ft0,ft0,rne
    1068:	037a                	slli	t1,t1,0x1e
    106a:	0000                	unimp
    106c:	0251                	addi	tp,tp,20
    106e:	0000                	unimp
    1070:	0188                	addi	a0,sp,192
    1072:	0000                	unimp
    1074:	0382                	c.slli64	t2
    1076:	0000                	unimp
    1078:	02b6                	slli	t0,t0,0xd
    107a:	0000                	unimp
    107c:	00e4                	addi	s1,sp,76
    107e:	0000                	unimp
    1080:	03c1                	addi	t2,t2,16
    1082:	0000                	unimp
    1084:	000c                	0xc
    1086:	0000                	unimp
    1088:	006e                	c.slli	zero,0x1b
    108a:	0000                	unimp
    108c:	00000373          	0x373
    1090:	0074                	addi	a3,sp,12
    1092:	0000                	unimp
    1094:	02ee                	slli	t0,t0,0x1b
    1096:	0000                	unimp
    1098:	0128                	addi	a0,sp,136
    109a:	0000                	unimp
    109c:	0286                	slli	t0,t0,0x1
    109e:	0000                	unimp

000010a0 <verify_data>:
    10a0:	0000                	unimp
    10a2:	0000                	unimp
    10a4:	01c6                	slli	gp,gp,0x11
    10a6:	0000                	unimp
    10a8:	01c6                	slli	gp,gp,0x11
    10aa:	0000                	unimp
    10ac:	0234                	addi	a3,sp,264
    10ae:	0000                	unimp
    10b0:	0000014f          	fnmadd.s	ft2,ft0,ft0,ft0,rne
    10b4:	000000bb          	0xbb
    10b8:	000000bb          	0xbb
    10bc:	02ed                	addi	t0,t0,27
    10be:	0000                	unimp
    10c0:	02ed                	addi	t0,t0,27
    10c2:	0000                	unimp
    10c4:	016d                	addi	sp,sp,27
    10c6:	0000                	unimp
    10c8:	016d                	addi	sp,sp,27
    10ca:	0000                	unimp
    10cc:	015e                	slli	sp,sp,0x17
    10ce:	0000                	unimp
    10d0:	0084                	addi	s1,sp,64
    10d2:	0000                	unimp
    10d4:	0084                	addi	s1,sp,64
    10d6:	0000                	unimp
    10d8:	0099                	addi	ra,ra,6
    10da:	0000                	unimp
    10dc:	0248                	addi	a0,sp,260
    10de:	0000                	unimp
    10e0:	00d8                	addi	a4,sp,68
    10e2:	0000                	unimp
    10e4:	0248                	addi	a0,sp,260
    10e6:	0000                	unimp
    10e8:	00d8                	addi	a4,sp,68
    10ea:	0000                	unimp
    10ec:	026d                	addi	tp,tp,27
    10ee:	0000                	unimp
    10f0:	00d2                	slli	ra,ra,0x14
    10f2:	0000                	unimp
    10f4:	00d2                	slli	ra,ra,0x14
    10f6:	0000                	unimp
    10f8:	00d2                	slli	ra,ra,0x14
    10fa:	0000                	unimp
    10fc:	023c                	addi	a5,sp,264
    10fe:	0000                	unimp
    1100:	023c                	addi	a5,sp,264
    1102:	0000                	unimp
    1104:	037a                	slli	t1,t1,0x1e
    1106:	0000                	unimp
    1108:	0251                	addi	tp,tp,20
    110a:	0000                	unimp
    110c:	0251                	addi	tp,tp,20
    110e:	0000                	unimp
    1110:	0251                	addi	tp,tp,20
    1112:	0000                	unimp
    1114:	02b6                	slli	t0,t0,0xd
    1116:	0000                	unimp
    1118:	02b6                	slli	t0,t0,0xd
    111a:	0000                	unimp
    111c:	02b6                	slli	t0,t0,0xd
    111e:	0000                	unimp
    1120:	00e4                	addi	s1,sp,76
    1122:	0000                	unimp
    1124:	006e                	c.slli	zero,0x1b
    1126:	0000                	unimp
    1128:	006e                	c.slli	zero,0x1b
    112a:	0000                	unimp
    112c:	0074                	addi	a3,sp,12
    112e:	0000                	unimp
    1130:	02ee                	slli	t0,t0,0x1b
    1132:	0000                	unimp
    1134:	0128                	addi	a0,sp,136
    1136:	0000                	unimp
    1138:	0286                	slli	t0,t0,0x1
    113a:	0000                	unimp
    113c:	01aa                	slli	gp,gp,0xa
    113e:	0000                	unimp
